Certificate:
    Data:
        Version: 1 (0x0)
        Serial Number: 14612572155492250302 (0xcaca48f466e132be)
    Signature Algorithm: ecdsa-with-SHA256
        Issuer: C=KR, ST=SEOUL, L=GURO, O=unionplace, CN=unionplace Main Test CA/emailAddress=sc.kwak@unionplace.co.kr
        Validity
            Not Before: Oct 15 09:08:33 2019 GMT
            Not After : Oct 12 09:08:33 2029 GMT
        Subject: C=KR, ST=SEOUL, O=unionplace, CN=subscriber/emailAddress=sc.kwak@unionplace.co.kr
        Subject Public Key Info:
            Public Key Algorithm: id-ecPublicKey
                Public-Key: (256 bit)
                pub: 
                    04:4d:98:41:41:21:1d:dd:f1:da:80:5a:4b:36:23:
                    5e:fa:9f:8d:2c:b0:56:33:f8:be:d9:80:6f:ef:ba:
                    09:30:92:e9:b1:3e:55:85:eb:b7:54:23:26:66:a0:
                    e4:95:33:66:20:f0:fb:c5:fe:f3:92:5e:b6:92:94:
                    51:55:61:0a:13
                ASN1 OID: prime256v1
                NIST CURVE: P-256
    Signature Algorithm: ecdsa-with-SHA256
         30:46:02:21:00:e3:95:14:eb:70:57:fd:f7:b1:94:3a:8c:0c:
         1a:4b:07:5c:d4:16:d5:0f:0e:9b:c4:68:15:f6:f6:38:52:38:
         f8:02:21:00:82:a8:61:38:e7:c1:42:da:a2:ab:40:da:49:18:
         5a:e4:19:6e:bb:aa:2e:7d:33:a0:28:3c:9d:fd:d9:bc:8c:22
-----BEGIN CERTIFICATE-----
MIIB7jCCAZMCCQDKykj0ZuEyvjAKBggqhkjOPQQDAjCBjDELMAkGA1UEBhMCS1Ix
DjAMBgNVBAgMBVNFT1VMMQ0wCwYDVQQHDARHVVJPMRMwEQYDVQQKDAp1bmlvbnBs
YWNlMSAwHgYDVQQDDBd1bmlvbnBsYWNlIE1haW4gVGVzdCBDQTEnMCUGCSqGSIb3
DQEJARYYc2Mua3dha0B1bmlvbnBsYWNlLmNvLmtyMB4XDTE5MTAxNTA5MDgzM1oX
DTI5MTAxMjA5MDgzM1owcDELMAkGA1UEBhMCS1IxDjAMBgNVBAgMBVNFT1VMMRMw
EQYDVQQKDAp1bmlvbnBsYWNlMRMwEQYDVQQDDApzdWJzY3JpYmVyMScwJQYJKoZI
hvcNAQkBFhhzYy5rd2FrQHVuaW9ucGxhY2UuY28ua3IwWTATBgcqhkjOPQIBBggq
hkjOPQMBBwNCAARNmEFBIR3d8dqAWks2I176n40ssFYz+L7ZgG/vugkwkumxPlWF
67dUIyZmoOSVM2Yg8PvF/vOSXraSlFFVYQoTMAoGCCqGSM49BAMCA0kAMEYCIQDj
lRTrcFf997GUOowMGksHXNQW1Q8Om8RoFfb2OFI4+AIhAIKoYTjnwULaoqtA2kkY
WuQZbruqLn0zoCg8nf3ZvIwi
-----END CERTIFICATE-----
