Certificate:
    Data:
        Version: 1 (0x0)
        Serial Number: 14612572155492250301 (0xcaca48f466e132bd)
    Signature Algorithm: ecdsa-with-SHA256
        Issuer: C=KR, ST=SEOUL, L=GURO, O=unionplace, CN=unionplace Main Test CA/emailAddress=sc.kwak@unionplace.co.kr
        Validity
            Not Before: Oct 15 08:35:57 2019 GMT
            Not After : Oct 12 08:35:57 2029 GMT
        Subject: C=KR, ST=SEOUL, O=unionplace, CN=publisher/emailAddress=sc.kwak@unionplace.co.kr
        Subject Public Key Info:
            Public Key Algorithm: id-ecPublicKey
                Public-Key: (256 bit)
                pub: 
                    04:ec:9a:cc:7d:93:be:21:ca:7a:f4:33:49:dd:d3:
                    f6:62:e3:e4:f2:81:3a:d4:15:b7:ec:70:38:a5:d1:
                    ea:df:ff:51:29:42:73:19:32:48:d7:d0:3b:39:4b:
                    82:87:e7:95:77:f2:4a:c0:94:7e:32:1d:8d:2e:33:
                    38:dc:07:15:ec
                ASN1 OID: prime256v1
                NIST CURVE: P-256
    Signature Algorithm: ecdsa-with-SHA256
         30:44:02:20:1b:d0:96:ac:eb:24:51:b8:35:58:b6:5c:51:92:
         cd:40:48:75:a4:3d:3d:de:7a:0b:41:76:8a:79:77:15:05:9c:
         02:20:16:4d:aa:fb:e7:35:f0:40:72:fc:0b:e3:be:6f:c1:4f:
         d4:7b:61:e1:b5:9c:69:59:04:76:06:3e:7b:8b:e4:07
-----BEGIN CERTIFICATE-----
MIIB6zCCAZICCQDKykj0ZuEyvTAKBggqhkjOPQQDAjCBjDELMAkGA1UEBhMCS1Ix
DjAMBgNVBAgMBVNFT1VMMQ0wCwYDVQQHDARHVVJPMRMwEQYDVQQKDAp1bmlvbnBs
YWNlMSAwHgYDVQQDDBd1bmlvbnBsYWNlIE1haW4gVGVzdCBDQTEnMCUGCSqGSIb3
DQEJARYYc2Mua3dha0B1bmlvbnBsYWNlLmNvLmtyMB4XDTE5MTAxNTA4MzU1N1oX
DTI5MTAxMjA4MzU1N1owbzELMAkGA1UEBhMCS1IxDjAMBgNVBAgMBVNFT1VMMRMw
EQYDVQQKDAp1bmlvbnBsYWNlMRIwEAYDVQQDDAlwdWJsaXNoZXIxJzAlBgkqhkiG
9w0BCQEWGHNjLmt3YWtAdW5pb25wbGFjZS5jby5rcjBZMBMGByqGSM49AgEGCCqG
SM49AwEHA0IABOyazH2TviHKevQzSd3T9mLj5PKBOtQVt+xwOKXR6t//USlCcxky
SNfQOzlLgofnlXfySsCUfjIdjS4zONwHFewwCgYIKoZIzj0EAwIDRwAwRAIgG9CW
rOskUbg1WLZcUZLNQEh1pD093noLQXaKeXcVBZwCIBZNqvvnNfBAcvwL475vwU/U
e2HhtZxpWQR2Bj57i+QH
-----END CERTIFICATE-----
